(dp0
Vadmin_name
p1
Vdf
p2
sVpassword
p3
Vdf
p4
sVlibrarian_name
p5
Vash
p6
sVemail
p7
Vash@gmail.com
p8
sVcontact
p9
V8098098033
p10
sVschool_name
p11
Vabc
p12
sVschool_code
p13
V234
p14
sVschool_admin
p15
Vadd
p16
sVextra_admin
p17
Vnone
p18
s.