(dp0
Vscreen_state
p1
Vfullscreen
p2
sVprimary_bg_color
p3
V#4f4f4f
p4
sVsecondary_bg_color
p5
V#293667
p6
sVlab_heading_font
p7
VLucida 20
p8
sVprimary_font
p9
VHelvetica 12
p10
sVbtn_primary_bg_color
p11
V#ffffff
p12
sVbtn_active_bg_color
p13
V#28282B
p14
sVbtn_font
p15
g10
sVbtn_foreground
p16
g14
sVbtn_active_foreground
p17
V#FFFFFF
p18
sVlab_foreground
p19
g18
sVclock_font
p20
VHelvetica 15
p21
sVclock_foreground
p22
g14
sVclock_background
p23
g18
s.